; Function Attrs: mustprogress nofree nounwind willreturn memory(read, inaccessiblemem: none) uwtable
define noundef zeroext i1 @_ZNK4GURLneERKS_(ptr noundef nonnull readonly align 8 captures(none) dereferenceable(120) %0, ptr noundef nonnull readonly align 8 captures(none) dereferenceable(120) %1) local_unnamed_addr #8 align 2 personality ptr @__gxx_personality_v0 {
  %3 = getelementptr inbounds nuw i8, ptr %0, i64 8
  %4 = load i64, ptr %3, align 8, !tbaa !9
  %5 = getelementptr inbounds nuw i8, ptr %1, i64 8
  %6 = load i64, ptr %5, align 8, !tbaa !9
  %7 = icmp eq i64 %4, %6
  br i1 %7, label %8, label %_ZStneIcSt11char_traitsIcESaIcEEbRKNSt7__cxx1112basic_stringIT_T0_T1_EESA_.exit

8:                                                ; preds = %2
  %9 = icmp eq i64 %4, 0
  br i1 %9, label %_ZStneIcSt11char_traitsIcESaIcEEbRKNSt7__cxx1112basic_stringIT_T0_T1_EESA_.exit, label %10

10:                                               ; preds = %8
  %11 = load ptr, ptr %1, align 8, !tbaa !28
  %12 = load ptr, ptr %0, align 8, !tbaa !28
  %bcmp.i.i = tail call i32 @bcmp(ptr %12, ptr %11, i64 %4)
  %13 = icmp ne i32 %bcmp.i.i, 0
  br label %_ZStneIcSt11char_traitsIcESaIcEEbRKNSt7__cxx1112basic_stringIT_T0_T1_EESA_.exit

_ZStneIcSt11char_traitsIcESaIcEEbRKNSt7__cxx1112basic_stringIT_T0_T1_EESA_.exit: ; preds = %2, %8, %10
  %14 = phi i1 [ true, %2 ], [ %13, %10 ], [ false, %8 ]
  ret i1 %14
}